; Function Attrs: mustprogress nounwind uwtable
define hidden noundef zeroext i1 @_ZN22CompilationFailureInfo33print_pending_compilation_failureEP12outputStream(ptr noundef %0) local_unnamed_addr #0 align 2 {
  %2 = tail call align 8 ptr @llvm.threadlocal.address.p0(ptr align 8 @_ZN6Thread12_thr_currentE)
  %3 = load ptr, ptr %2, align 8
  %4 = icmp eq ptr %3, null
  br i1 %4, label %.thread32, label %5

5:                                                ; preds = %1
  %6 = load ptr, ptr %3, align 8
  %7 = getelementptr inbounds i8, ptr %6, i64 64
  %8 = load ptr, ptr %7, align 8
  %9 = tail call noundef zeroext i1 %8(ptr noundef nonnull align 8 dereferenceable(888) %3) #3
  br i1 %9, label %10, label %.thread32

10:                                               ; preds = %5
  %11 = load ptr, ptr %2, align 8
  %12 = getelementptr inbounds i8, ptr %11, i64 1808
  %13 = load ptr, ptr %12, align 8
  %14 = icmp eq ptr %13, null
  br i1 %14, label %.thread32, label %15

15:                                               ; preds = %10
  %16 = getelementptr inbounds i8, ptr %13, i64 112
  %17 = load ptr, ptr %16, align 8
  %18 = icmp eq ptr %17, null
  br i1 %18, label %.thread32, label %19

19:                                               ; preds = %15
  %20 = tail call noundef ptr @_ZNK11CompileTask8compilerEv(ptr noundef nonnull align 8 dereferenceable(176) %17) #3
  %21 = icmp eq ptr %20, null
  br i1 %21, label %.thread32, label %22

22:                                               ; preds = %19
  %23 = getelementptr inbounds i8, ptr %20, i64 16
  %24 = load i8, ptr %23, align 8
  switch i8 %24, label %.thread32 [
    i8 1, label %25
    i8 2, label %30
  ]

25:                                               ; preds = %22
  %26 = getelementptr inbounds i8, ptr %13, i64 128
  %27 = load ptr, ptr %26, align 8
  %.not = icmp eq ptr %27, null
  br i1 %.not, label %.thread32, label %28

28:                                               ; preds = %25
  %29 = getelementptr inbounds i8, ptr %27, i64 120
  br label %.thread

30:                                               ; preds = %22
  %31 = getelementptr inbounds i8, ptr %13, i64 128
  %32 = load ptr, ptr %31, align 8
  %.not28 = icmp eq ptr %32, null
  br i1 %.not28, label %.thread32, label %33

33:                                               ; preds = %30
  %34 = getelementptr inbounds i8, ptr %32, i64 384
  br label %.thread

.thread:                                          ; preds = %28, %33
  %.1.in = phi ptr [ %34, %33 ], [ %29, %28 ]
  %.1 = load ptr, ptr %.1.in, align 8
  %.not29 = icmp eq ptr %.1, null
  br i1 %.not29, label %.thread32, label %35

35:                                               ; preds = %.thread
  %36 = ptrtoint ptr %3 to i64
  tail call void (ptr, ptr, ...) @_ZN12outputStream8print_crEPKcz(ptr noundef nonnull align 8 dereferenceable(56) %0, ptr noundef nonnull @.str.7, i64 noundef %36) #3
  tail call void (ptr, ptr, ...) @_ZN12outputStream5printEPKcz(ptr noundef nonnull align 8 dereferenceable(56) %0, ptr noundef nonnull @.str) #3
  %37 = getelementptr inbounds i8, ptr %.1, i64 40
  %38 = load double, ptr %37, align 8
  tail call void @_ZN2os18print_elapsed_timeEP12outputStreamd(ptr noundef nonnull %0, double noundef %38) #3
  %39 = getelementptr inbounds i8, ptr %.1, i64 48
  %40 = load i32, ptr %39, align 8
  tail call void (ptr, ptr, ...) @_ZN12outputStream8print_crEPKcz(ptr noundef nonnull align 8 dereferenceable(56) %0, ptr noundef nonnull @.str.4, i32 noundef %40) #3
  %41 = getelementptr inbounds i8, ptr %.1, i64 32
  %42 = load ptr, ptr %41, align 8
  tail call void (ptr, ptr, ...) @_ZN12outputStream8print_crEPKcz(ptr noundef nonnull align 8 dereferenceable(56) %0, ptr noundef nonnull @.str.5, ptr noundef %42) #3
  tail call void (ptr, ptr, ...) @_ZN12outputStream8print_crEPKcz(ptr noundef nonnull align 8 dereferenceable(56) %0, ptr noundef nonnull @.str.6) #3
  tail call void @_ZNK15NativeCallStack8print_onEP12outputStream(ptr noundef nonnull align 8 dereferenceable(32) %.1, ptr noundef nonnull %0) #3
  tail call void @_ZN12outputStream2crEv(ptr noundef nonnull align 8 dereferenceable(56) %0) #3
  br label %.thread32

.thread32:                                        ; preds = %22, %25, %30, %.thread, %35, %19, %15, %10, %1, %5
  %.0 = phi i1 [ false, %5 ], [ false, %1 ], [ false, %10 ], [ false, %15 ], [ false, %19 ], [ true, %35 ], [ true, %.thread ], [ true, %30 ], [ true, %25 ], [ true, %22 ]
  ret i1 %.0
}